; ModuleID = '30/3253.c'
source_filename = "30/3253.c"
target datalayout = "e-m:e-p270:32:32-p271:32:32-p272:64:64-i64:64-f80:128-n8:16:32:64-S128"
target triple = "x86_64-pc-linux-gnu"

@.str = private unnamed_addr constant [3 x i8] c"%d\00", align 1
@.str.1 = private unnamed_addr constant [4 x i8] c"%d\0A\00", align 1

; Function Attrs: noinline nounwind uwtable
define dso_local void @main() #0 {
  %1 = alloca i32, align 4
  %2 = alloca i32, align 4
  %3 = alloca [100 x i32], align 16
  %4 = alloca i32, align 4
  %5 = call i32 (i8*, ...) @__isoc99_scanf(i8* getelementptr inbounds ([3 x i8], [3 x i8]* @.str, i64 0, i64 0), i32* %2)
  store i32 1, i32* %1, align 4
  br label %6

6:                                                ; preds = %16, %0
  %7 = load i32, i32* %1, align 4
  %8 = load i32, i32* %2, align 4
  %9 = icmp sle i32 %7, %8
  br i1 %9, label %10, label %19

10:                                               ; preds = %6
  %11 = load i32, i32* %1, align 4
  %12 = load i32, i32* %1, align 4
  %13 = sub nsw i32 %12, 1
  %14 = sext i32 %13 to i64
  %15 = getelementptr inbounds [100 x i32], [100 x i32]* %3, i64 0, i64 %14
  store i32 %11, i32* %15, align 4
  br label %16

16:                                               ; preds = %10
  %17 = load i32, i32* %1, align 4
  %18 = add nsw i32 %17, 1
  store i32 %18, i32* %1, align 4
  br label %6

19:                                               ; preds = %6
  store i32 0, i32* %1, align 4
  br label %20

20:                                               ; preds = %132, %19
  %21 = load i32, i32* %1, align 4
  %22 = load i32, i32* %2, align 4
  %23 = icmp slt i32 %21, %22
  br i1 %23, label %24, label %135

24:                                               ; preds = %20
  %25 = load i32, i32* %1, align 4
  %26 = sext i32 %25 to i64
  %27 = getelementptr inbounds [100 x i32], [100 x i32]* %3, i64 0, i64 %26
  %28 = load i32, i32* %27, align 4
  %29 = srem i32 %28, 7
  %30 = icmp eq i32 %29, 0
  br i1 %30, label %127, label %31

31:                                               ; preds = %24
  %32 = load i32, i32* %1, align 4
  %33 = sext i32 %32 to i64
  %34 = getelementptr inbounds [100 x i32], [100 x i32]* %3, i64 0, i64 %33
  %35 = load i32, i32* %34, align 4
  %36 = icmp eq i32 %35, 17
  br i1 %36, label %127, label %37

37:                                               ; preds = %31
  %38 = load i32, i32* %1, align 4
  %39 = sext i32 %38 to i64
  %40 = getelementptr inbounds [100 x i32], [100 x i32]* %3, i64 0, i64 %39
  %41 = load i32, i32* %40, align 4
  %42 = icmp eq i32 %41, 27
  br i1 %42, label %127, label %43

43:                                               ; preds = %37
  %44 = load i32, i32* %1, align 4
  %45 = sext i32 %44 to i64
  %46 = getelementptr inbounds [100 x i32], [100 x i32]* %3, i64 0, i64 %45
  %47 = load i32, i32* %46, align 4
  %48 = icmp eq i32 %47, 37
  br i1 %48, label %127, label %49

49:                                               ; preds = %43
  %50 = load i32, i32* %1, align 4
  %51 = sext i32 %50 to i64
  %52 = getelementptr inbounds [100 x i32], [100 x i32]* %3, i64 0, i64 %51
  %53 = load i32, i32* %52, align 4
  %54 = icmp eq i32 %53, 47
  br i1 %54, label %127, label %55

55:                                               ; preds = %49
  %56 = load i32, i32* %1, align 4
  %57 = sext i32 %56 to i64
  %58 = getelementptr inbounds [100 x i32], [100 x i32]* %3, i64 0, i64 %57
  %59 = load i32, i32* %58, align 4
  %60 = icmp eq i32 %59, 57
  br i1 %60, label %127, label %61

61:                                               ; preds = %55
  %62 = load i32, i32* %1, align 4
  %63 = sext i32 %62 to i64
  %64 = getelementptr inbounds [100 x i32], [100 x i32]* %3, i64 0, i64 %63
  %65 = load i32, i32* %64, align 4
  %66 = icmp eq i32 %65, 67
  br i1 %66, label %127, label %67

67:                                               ; preds = %61
  %68 = load i32, i32* %1, align 4
  %69 = sext i32 %68 to i64
  %70 = getelementptr inbounds [100 x i32], [100 x i32]* %3, i64 0, i64 %69
  %71 = load i32, i32* %70, align 4
  %72 = icmp eq i32 %71, 71
  br i1 %72, label %127, label %73

73:                                               ; preds = %67
  %74 = load i32, i32* %1, align 4
  %75 = sext i32 %74 to i64
  %76 = getelementptr inbounds [100 x i32], [100 x i32]* %3, i64 0, i64 %75
  %77 = load i32, i32* %76, align 4
  %78 = icmp eq i32 %77, 72
  br i1 %78, label %127, label %79

79:                                               ; preds = %73
  %80 = load i32, i32* %1, align 4
  %81 = sext i32 %80 to i64
  %82 = getelementptr inbounds [100 x i32], [100 x i32]* %3, i64 0, i64 %81
  %83 = load i32, i32* %82, align 4
  %84 = icmp eq i32 %83, 73
  br i1 %84, label %127, label %85

85:                                               ; preds = %79
  %86 = load i32, i32* %1, align 4
  %87 = sext i32 %86 to i64
  %88 = getelementptr inbounds [100 x i32], [100 x i32]* %3, i64 0, i64 %87
  %89 = load i32, i32* %88, align 4
  %90 = icmp eq i32 %89, 74
  br i1 %90, label %127, label %91

91:                                               ; preds = %85
  %92 = load i32, i32* %1, align 4
  %93 = sext i32 %92 to i64
  %94 = getelementptr inbounds [100 x i32], [100 x i32]* %3, i64 0, i64 %93
  %95 = load i32, i32* %94, align 4
  %96 = icmp eq i32 %95, 75
  br i1 %96, label %127, label %97

97:                                               ; preds = %91
  %98 = load i32, i32* %1, align 4
  %99 = sext i32 %98 to i64
  %100 = getelementptr inbounds [100 x i32], [100 x i32]* %3, i64 0, i64 %99
  %101 = load i32, i32* %100, align 4
  %102 = icmp eq i32 %101, 76
  br i1 %102, label %127, label %103

103:                                              ; preds = %97
  %104 = load i32, i32* %1, align 4
  %105 = sext i32 %104 to i64
  %106 = getelementptr inbounds [100 x i32], [100 x i32]* %3, i64 0, i64 %105
  %107 = load i32, i32* %106, align 4
  %108 = icmp eq i32 %107, 78
  br i1 %108, label %127, label %109

109:                                              ; preds = %103
  %110 = load i32, i32* %1, align 4
  %111 = sext i32 %110 to i64
  %112 = getelementptr inbounds [100 x i32], [100 x i32]* %3, i64 0, i64 %111
  %113 = load i32, i32* %112, align 4
  %114 = icmp eq i32 %113, 79
  br i1 %114, label %127, label %115

115:                                              ; preds = %109
  %116 = load i32, i32* %1, align 4
  %117 = sext i32 %116 to i64
  %118 = getelementptr inbounds [100 x i32], [100 x i32]* %3, i64 0, i64 %117
  %119 = load i32, i32* %118, align 4
  %120 = icmp eq i32 %119, 87
  br i1 %120, label %127, label %121

121:                                              ; preds = %115
  %122 = load i32, i32* %1, align 4
  %123 = sext i32 %122 to i64
  %124 = getelementptr inbounds [100 x i32], [100 x i32]* %3, i64 0, i64 %123
  %125 = load i32, i32* %124, align 4
  %126 = icmp eq i32 %125, 97
  br i1 %126, label %127, label %131

127:                                              ; preds = %121, %115, %109, %103, %97, %91, %85, %79, %73, %67, %61, %55, %49, %43, %37, %31, %24
  %128 = load i32, i32* %1, align 4
  %129 = sext i32 %128 to i64
  %130 = getelementptr inbounds [100 x i32], [100 x i32]* %3, i64 0, i64 %129
  store i32 0, i32* %130, align 4
  br label %131

131:                                              ; preds = %127, %121
  br label %132

132:                                              ; preds = %131
  %133 = load i32, i32* %1, align 4
  %134 = add nsw i32 %133, 1
  store i32 %134, i32* %1, align 4
  br label %20

135:                                              ; preds = %20
  store i32 0, i32* %4, align 4
  store i32 0, i32* %1, align 4
  br label %136

136:                                              ; preds = %152, %135
  %137 = load i32, i32* %1, align 4
  %138 = load i32, i32* %2, align 4
  %139 = icmp slt i32 %137, %138
  br i1 %139, label %140, label %155

140:                                              ; preds = %136
  %141 = load i32, i32* %4, align 4
  %142 = load i32, i32* %1, align 4
  %143 = sext i32 %142 to i64
  %144 = getelementptr inbounds [100 x i32], [100 x i32]* %3, i64 0, i64 %143
  %145 = load i32, i32* %144, align 4
  %146 = load i32, i32* %1, align 4
  %147 = sext i32 %146 to i64
  %148 = getelementptr inbounds [100 x i32], [100 x i32]* %3, i64 0, i64 %147
  %149 = load i32, i32* %148, align 4
  %150 = mul nsw i32 %145, %149
  %151 = add nsw i32 %141, %150
  store i32 %151, i32* %4, align 4
  br label %152

152:                                              ; preds = %140
  %153 = load i32, i32* %1, align 4
  %154 = add nsw i32 %153, 1
  store i32 %154, i32* %1, align 4
  br label %136

155:                                              ; preds = %136
  %156 = load i32, i32* %4, align 4
  %157 = call i32 (i8*, ...) @printf(i8* getelementptr inbounds ([4 x i8], [4 x i8]* @.str.1, i64 0, i64 0), i32 %156)
  ret void
}

declare dso_local i32 @__isoc99_scanf(i8*, ...) #1

declare dso_local i32 @printf(i8*, ...) #1


!llvm.module.flags = !{!0}
!llvm.ident = !{!1}

!0 = !{i32 1, !"wchar_size", i32 4}
!1 = !{!"clang version 10.0.0-4ubuntu1 "}
